target datalayout = "e-m:e-p270:32:32-p271:32:32-p272:64:64-i64:64-i128:128-f80:128-n8:16:32:64-S128"
target triple = "x86_64-pc-linux-gnu"

%struct.pmix_list_t = type { %struct.pmix_object_t, %struct.pmix_list_item_t, i64 }
%struct.pmix_object_t = type { %union.pthread_mutex_t, ptr, i32, %struct.pmix_tma }
%union.pthread_mutex_t = type { %struct.__pthread_mutex_s }
%struct.__pthread_mutex_s = type { i32, i32, i32, i32, i32, i16, i16, %struct.__pthread_internal_list }
%struct.__pthread_internal_list = type { ptr, ptr }
%struct.pmix_tma = type { ptr, ptr, ptr, ptr, ptr, ptr, ptr, ptr }
%struct.pmix_list_item_t = type { %struct.pmix_object_t, ptr, ptr, i32 }
%struct.pmix_output_desc_t = type { i8, i8, i32, i8, i32, ptr, ptr, i32, ptr, i32, i8, i8, i8, i8, ptr, i32, i32 }
%struct.timeval = type { i64, i64 }
%struct.pmix_iof_flags_t = type { i8, i8, i8, i8, i8, i8, i8, ptr, ptr, i8, i8, i8, i8, i8, i8 }
%struct.pmix_namespace_t = type { %struct.pmix_list_item_t, ptr, %struct.anon, i32, i64, i64, i8, i8, ptr, i64, i64, %struct.pmix_list_t, %struct.pmix_personality_t, %struct.pmix_epilog_t, %struct.pmix_list_t, %struct.pmix_iof_flags_t, %struct.pmix_list_t }
%struct.anon = type { i8, i8, i8 }
%struct.pmix_personality_t = type { i8, ptr, ptr, ptr }
%struct.pmix_epilog_t = type { i32, i32, %struct.pmix_list_t, %struct.pmix_list_t, %struct.pmix_list_t }
%struct.pmix_peer_t = type { %struct.pmix_object_t, ptr, ptr, %struct.pmix_proc_type_t, i16, i32, i32, i32, i8, %struct.event, i8, %struct.event, i8, %struct.pmix_list_t, ptr, ptr, i32, %struct.pmix_epilog_t }
%struct.pmix_proc_type_t = type { i32, i8, i8, i8, i8 }
%struct.event = type { %struct.event_callback, %union.anon.2, i32, ptr, %union.anon.4, i16, i16, %struct.timeval }
%struct.event_callback = type { %struct.anon.0, i16, i8, i8, %union.anon.1, ptr }
%struct.anon.0 = type { ptr, ptr }
%union.anon.1 = type { ptr }
%union.anon.2 = type { %struct.anon.3 }
%struct.anon.3 = type { ptr, ptr }
%union.anon.4 = type { %struct.anon.5 }
%struct.anon.5 = type { %struct.anon.6, %struct.timeval }
%struct.anon.6 = type { ptr, ptr }
%struct.pmix_buffer_t = type { %struct.pmix_object_t, i8, ptr, ptr, ptr, i64, i64 }
%struct.pmix_bfrops_module_t = type { ptr, ptr, ptr, ptr, ptr, ptr, ptr, ptr, ptr, ptr, ptr, ptr, ptr }
%struct.pmix_server_caddy_t = type { %struct.pmix_list_item_t, %struct.event, i8, ptr, %struct.pmix_ptl_hdr_t, ptr, ptr, i64 }
%struct.pmix_ptl_hdr_t = type { i32, i32, i32, i32 }

@pmix_output_info = external global [0 x %struct.pmix_output_desc_t], align 8
@.str.8 = private unnamed_addr constant [11 x i8] c"gds_hash.c\00", align 1
@pmix_bfrops_base_output = external global i32, align 4
@.str.76 = private unnamed_addr constant [32 x i8] c"[%s:%d] PACK version %s type %s\00", align 1

; Function Attrs: nounwind uwtable
define internal i32 @assemb_kvs_req(ptr noundef %0, ptr noundef %1, ptr noundef %2, ptr noundef %3) #0 {
  %5 = alloca i32, align 4
  %6 = alloca ptr, align 8
  %7 = alloca ptr, align 8
  %8 = alloca ptr, align 8
  %9 = alloca ptr, align 8
  %10 = alloca i32, align 4
  %11 = alloca ptr, align 8
  %12 = alloca ptr, align 8
  %13 = alloca i32, align 4
  store ptr %0, ptr %6, align 8, !tbaa !169
  store ptr %1, ptr %7, align 8, !tbaa !179
  store ptr %2, ptr %8, align 8, !tbaa !38
  store ptr %3, ptr %9, align 8, !tbaa !38
  call void @llvm.lifetime.start.p0(i64 4, ptr %10) #11
  store i32 0, ptr %10, align 4, !tbaa !10
  call void @llvm.lifetime.start.p0(i64 8, ptr %11) #11
  %14 = load ptr, ptr %9, align 8, !tbaa !38
  store ptr %14, ptr %11, align 8, !tbaa !38
  call void @llvm.lifetime.start.p0(i64 8, ptr %12) #11
  %15 = load ptr, ptr %11, align 8, !tbaa !38
  %16 = getelementptr inbounds nuw %struct.pmix_server_caddy_t, ptr %15, i32 0, i32 5
  %17 = load ptr, ptr %16, align 8, !tbaa !181
  %18 = getelementptr inbounds nuw %struct.pmix_peer_t, ptr %17, i32 0, i32 3
  %19 = getelementptr inbounds nuw %struct.pmix_proc_type_t, ptr %18, i32 0, i32 1
  %20 = load i8, ptr %19, align 4, !tbaa !184
  %21 = zext i8 %20 to i32
  %22 = icmp eq i32 %21, 1
  br i1 %22, label %119, label %23

23:                                               ; preds = %4
  br label %24

24:                                               ; preds = %23
  %25 = load i32, ptr @pmix_bfrops_base_output, align 4, !tbaa !10
  %26 = icmp sge i32 %25, 0
  br i1 %26, label %27, label %50

27:                                               ; preds = %24
  %28 = load i32, ptr @pmix_bfrops_base_output, align 4, !tbaa !10
  %29 = icmp slt i32 %28, 64
  br i1 %29, label %30, label %50

30:                                               ; preds = %27
  %31 = load i32, ptr @pmix_bfrops_base_output, align 4, !tbaa !10
  %32 = sext i32 %31 to i64
  %33 = getelementptr inbounds [0 x %struct.pmix_output_desc_t], ptr @pmix_output_info, i64 0, i64 %32
  %34 = getelementptr inbounds nuw %struct.pmix_output_desc_t, ptr %33, i32 0, i32 2
  %35 = load i32, ptr %34, align 4, !tbaa !44
  %36 = icmp sge i32 %35, 2
  br i1 %36, label %37, label %50

37:                                               ; preds = %30
  %38 = load i32, ptr @pmix_bfrops_base_output, align 4, !tbaa !10
  %39 = load ptr, ptr %11, align 8, !tbaa !38
  %40 = getelementptr inbounds nuw %struct.pmix_server_caddy_t, ptr %39, i32 0, i32 5
  %41 = load ptr, ptr %40, align 8, !tbaa !181
  %42 = getelementptr inbounds nuw %struct.pmix_peer_t, ptr %41, i32 0, i32 1
  %43 = load ptr, ptr %42, align 8, !tbaa !117
  %44 = getelementptr inbounds nuw %struct.pmix_namespace_t, ptr %43, i32 0, i32 12
  %45 = getelementptr inbounds nuw %struct.pmix_personality_t, ptr %44, i32 0, i32 1
  %46 = load ptr, ptr %45, align 8, !tbaa !133
  %47 = getelementptr inbounds nuw %struct.pmix_bfrops_module_t, ptr %46, i32 0, i32 0
  %48 = load ptr, ptr %47, align 8, !tbaa !137
  %49 = call ptr @PMIx_Data_type_string(i16 noundef zeroext 22)
  call void (i32, ptr, ...) @pmix_output(i32 noundef %38, ptr noundef @.str.76, ptr noundef @.str.8, i32 noundef 1446, ptr noundef %48, ptr noundef %49)
  br label %50

50:                                               ; preds = %37, %30, %27, %24
  %51 = load ptr, ptr %8, align 8, !tbaa !38
  %52 = getelementptr inbounds nuw %struct.pmix_buffer_t, ptr %51, i32 0, i32 1
  %53 = load i8, ptr %52, align 8, !tbaa !130
  %54 = zext i8 %53 to i32
  %55 = icmp eq i32 0, %54
  br i1 %55, label %56, label %80

56:                                               ; preds = %50
  %57 = load ptr, ptr %11, align 8, !tbaa !38
  %58 = getelementptr inbounds nuw %struct.pmix_server_caddy_t, ptr %57, i32 0, i32 5
  %59 = load ptr, ptr %58, align 8, !tbaa !181
  %60 = getelementptr inbounds nuw %struct.pmix_peer_t, ptr %59, i32 0, i32 1
  %61 = load ptr, ptr %60, align 8, !tbaa !117
  %62 = getelementptr inbounds nuw %struct.pmix_namespace_t, ptr %61, i32 0, i32 12
  %63 = getelementptr inbounds nuw %struct.pmix_personality_t, ptr %62, i32 0, i32 0
  %64 = load i8, ptr %63, align 8, !tbaa !132
  %65 = load ptr, ptr %8, align 8, !tbaa !38
  %66 = getelementptr inbounds nuw %struct.pmix_buffer_t, ptr %65, i32 0, i32 1
  store i8 %64, ptr %66, align 8, !tbaa !130
  %67 = load ptr, ptr %11, align 8, !tbaa !38
  %68 = getelementptr inbounds nuw %struct.pmix_server_caddy_t, ptr %67, i32 0, i32 5
  %69 = load ptr, ptr %68, align 8, !tbaa !181
  %70 = getelementptr inbounds nuw %struct.pmix_peer_t, ptr %69, i32 0, i32 1
  %71 = load ptr, ptr %70, align 8, !tbaa !117
  %72 = getelementptr inbounds nuw %struct.pmix_namespace_t, ptr %71, i32 0, i32 12
  %73 = getelementptr inbounds nuw %struct.pmix_personality_t, ptr %72, i32 0, i32 1
  %74 = load ptr, ptr %73, align 8, !tbaa !133
  %75 = getelementptr inbounds nuw %struct.pmix_bfrops_module_t, ptr %74, i32 0, i32 3
  %76 = load ptr, ptr %75, align 8, !tbaa !138
  %77 = load ptr, ptr %8, align 8, !tbaa !38
  %78 = load ptr, ptr %6, align 8, !tbaa !169
  %79 = call i32 %76(ptr noundef %77, ptr noundef %78, i32 noundef 1, i16 noundef zeroext 22)
  store i32 %79, ptr %10, align 4, !tbaa !10
  br label %111

80:                                               ; preds = %50
  %81 = load ptr, ptr %8, align 8, !tbaa !38
  %82 = getelementptr inbounds nuw %struct.pmix_buffer_t, ptr %81, i32 0, i32 1
  %83 = load i8, ptr %82, align 8, !tbaa !130
  %84 = zext i8 %83 to i32
  %85 = load ptr, ptr %11, align 8, !tbaa !38
  %86 = getelementptr inbounds nuw %struct.pmix_server_caddy_t, ptr %85, i32 0, i32 5
  %87 = load ptr, ptr %86, align 8, !tbaa !181
  %88 = getelementptr inbounds nuw %struct.pmix_peer_t, ptr %87, i32 0, i32 1
  %89 = load ptr, ptr %88, align 8, !tbaa !117
  %90 = getelementptr inbounds nuw %struct.pmix_namespace_t, ptr %89, i32 0, i32 12
  %91 = getelementptr inbounds nuw %struct.pmix_personality_t, ptr %90, i32 0, i32 0
  %92 = load i8, ptr %91, align 8, !tbaa !132
  %93 = zext i8 %92 to i32
  %94 = icmp eq i32 %84, %93
  br i1 %94, label %95, label %109

95:                                               ; preds = %80
  %96 = load ptr, ptr %11, align 8, !tbaa !38
  %97 = getelementptr inbounds nuw %struct.pmix_server_caddy_t, ptr %96, i32 0, i32 5
  %98 = load ptr, ptr %97, align 8, !tbaa !181
  %99 = getelementptr inbounds nuw %struct.pmix_peer_t, ptr %98, i32 0, i32 1
  %100 = load ptr, ptr %99, align 8, !tbaa !117
  %101 = getelementptr inbounds nuw %struct.pmix_namespace_t, ptr %100, i32 0, i32 12
  %102 = getelementptr inbounds nuw %struct.pmix_personality_t, ptr %101, i32 0, i32 1
  %103 = load ptr, ptr %102, align 8, !tbaa !133
  %104 = getelementptr inbounds nuw %struct.pmix_bfrops_module_t, ptr %103, i32 0, i32 3
  %105 = load ptr, ptr %104, align 8, !tbaa !138
  %106 = load ptr, ptr %8, align 8, !tbaa !38
  %107 = load ptr, ptr %6, align 8, !tbaa !169
  %108 = call i32 %105(ptr noundef %106, ptr noundef %107, i32 noundef 1, i16 noundef zeroext 22)
  store i32 %108, ptr %10, align 4, !tbaa !10
  br label %110

109:                                              ; preds = %80
  store i32 -22, ptr %10, align 4, !tbaa !10
  br label %110

110:                                              ; preds = %109, %95
  br label %111

111:                                              ; preds = %110, %56
  br label %112

112:                                              ; preds = %111
  br label %113

113:                                              ; preds = %112
  %114 = load i32, ptr %10, align 4, !tbaa !10
  %115 = icmp ne i32 0, %114
  br i1 %115, label %116, label %118

116:                                              ; preds = %113
  %117 = load i32, ptr %10, align 4, !tbaa !10
  store i32 %117, ptr %5, align 4
  store i32 1, ptr %13, align 4
  br label %231

118:                                              ; preds = %113
  br label %119

119:                                              ; preds = %118, %4
  %120 = load ptr, ptr %7, align 8, !tbaa !179
  %121 = getelementptr inbounds nuw %struct.pmix_list_t, ptr %120, i32 0, i32 1
  %122 = getelementptr inbounds nuw %struct.pmix_list_item_t, ptr %121, i32 0, i32 1
  %123 = load ptr, ptr %122, align 8, !tbaa !185
  store ptr %123, ptr %12, align 8, !tbaa !38
  br label %124

124:                                              ; preds = %225, %119
  %125 = load ptr, ptr %12, align 8, !tbaa !38
  %126 = load ptr, ptr %7, align 8, !tbaa !179
  %127 = getelementptr inbounds nuw %struct.pmix_list_t, ptr %126, i32 0, i32 1
  %128 = icmp ne ptr %125, %127
  br i1 %128, label %129, label %229

129:                                              ; preds = %124
  br label %130

130:                                              ; preds = %129
  %131 = load i32, ptr @pmix_bfrops_base_output, align 4, !tbaa !10
  %132 = icmp sge i32 %131, 0
  br i1 %132, label %133, label %156

133:                                              ; preds = %130
  %134 = load i32, ptr @pmix_bfrops_base_output, align 4, !tbaa !10
  %135 = icmp slt i32 %134, 64
  br i1 %135, label %136, label %156

136:                                              ; preds = %133
  %137 = load i32, ptr @pmix_bfrops_base_output, align 4, !tbaa !10
  %138 = sext i32 %137 to i64
  %139 = getelementptr inbounds [0 x %struct.pmix_output_desc_t], ptr @pmix_output_info, i64 0, i64 %138
  %140 = getelementptr inbounds nuw %struct.pmix_output_desc_t, ptr %139, i32 0, i32 2
  %141 = load i32, ptr %140, align 4, !tbaa !44
  %142 = icmp sge i32 %141, 2
  br i1 %142, label %143, label %156

143:                                              ; preds = %136
  %144 = load i32, ptr @pmix_bfrops_base_output, align 4, !tbaa !10
  %145 = load ptr, ptr %11, align 8, !tbaa !38
  %146 = getelementptr inbounds nuw %struct.pmix_server_caddy_t, ptr %145, i32 0, i32 5
  %147 = load ptr, ptr %146, align 8, !tbaa !181
  %148 = getelementptr inbounds nuw %struct.pmix_peer_t, ptr %147, i32 0, i32 1
  %149 = load ptr, ptr %148, align 8, !tbaa !117
  %150 = getelementptr inbounds nuw %struct.pmix_namespace_t, ptr %149, i32 0, i32 12
  %151 = getelementptr inbounds nuw %struct.pmix_personality_t, ptr %150, i32 0, i32 1
  %152 = load ptr, ptr %151, align 8, !tbaa !133
  %153 = getelementptr inbounds nuw %struct.pmix_bfrops_module_t, ptr %152, i32 0, i32 0
  %154 = load ptr, ptr %153, align 8, !tbaa !137
  %155 = call ptr @PMIx_Data_type_string(i16 noundef zeroext 28)
  call void (i32, ptr, ...) @pmix_output(i32 noundef %144, ptr noundef @.str.76, ptr noundef @.str.8, i32 noundef 1452, ptr noundef %154, ptr noundef %155)
  br label %156

156:                                              ; preds = %143, %136, %133, %130
  %157 = load ptr, ptr %8, align 8, !tbaa !38
  %158 = getelementptr inbounds nuw %struct.pmix_buffer_t, ptr %157, i32 0, i32 1
  %159 = load i8, ptr %158, align 8, !tbaa !130
  %160 = zext i8 %159 to i32
  %161 = icmp eq i32 0, %160
  br i1 %161, label %162, label %186

162:                                              ; preds = %156
  %163 = load ptr, ptr %11, align 8, !tbaa !38
  %164 = getelementptr inbounds nuw %struct.pmix_server_caddy_t, ptr %163, i32 0, i32 5
  %165 = load ptr, ptr %164, align 8, !tbaa !181
  %166 = getelementptr inbounds nuw %struct.pmix_peer_t, ptr %165, i32 0, i32 1
  %167 = load ptr, ptr %166, align 8, !tbaa !117
  %168 = getelementptr inbounds nuw %struct.pmix_namespace_t, ptr %167, i32 0, i32 12
  %169 = getelementptr inbounds nuw %struct.pmix_personality_t, ptr %168, i32 0, i32 0
  %170 = load i8, ptr %169, align 8, !tbaa !132
  %171 = load ptr, ptr %8, align 8, !tbaa !38
  %172 = getelementptr inbounds nuw %struct.pmix_buffer_t, ptr %171, i32 0, i32 1
  store i8 %170, ptr %172, align 8, !tbaa !130
  %173 = load ptr, ptr %11, align 8, !tbaa !38
  %174 = getelementptr inbounds nuw %struct.pmix_server_caddy_t, ptr %173, i32 0, i32 5
  %175 = load ptr, ptr %174, align 8, !tbaa !181
  %176 = getelementptr inbounds nuw %struct.pmix_peer_t, ptr %175, i32 0, i32 1
  %177 = load ptr, ptr %176, align 8, !tbaa !117
  %178 = getelementptr inbounds nuw %struct.pmix_namespace_t, ptr %177, i32 0, i32 12
  %179 = getelementptr inbounds nuw %struct.pmix_personality_t, ptr %178, i32 0, i32 1
  %180 = load ptr, ptr %179, align 8, !tbaa !133
  %181 = getelementptr inbounds nuw %struct.pmix_bfrops_module_t, ptr %180, i32 0, i32 3
  %182 = load ptr, ptr %181, align 8, !tbaa !138
  %183 = load ptr, ptr %8, align 8, !tbaa !38
  %184 = load ptr, ptr %12, align 8, !tbaa !38
  %185 = call i32 %182(ptr noundef %183, ptr noundef %184, i32 noundef 1, i16 noundef zeroext 28)
  store i32 %185, ptr %10, align 4, !tbaa !10
  br label %217

186:                                              ; preds = %156
  %187 = load ptr, ptr %8, align 8, !tbaa !38
  %188 = getelementptr inbounds nuw %struct.pmix_buffer_t, ptr %187, i32 0, i32 1
  %189 = load i8, ptr %188, align 8, !tbaa !130
  %190 = zext i8 %189 to i32
  %191 = load ptr, ptr %11, align 8, !tbaa !38
  %192 = getelementptr inbounds nuw %struct.pmix_server_caddy_t, ptr %191, i32 0, i32 5
  %193 = load ptr, ptr %192, align 8, !tbaa !181
  %194 = getelementptr inbounds nuw %struct.pmix_peer_t, ptr %193, i32 0, i32 1
  %195 = load ptr, ptr %194, align 8, !tbaa !117
  %196 = getelementptr inbounds nuw %struct.pmix_namespace_t, ptr %195, i32 0, i32 12
  %197 = getelementptr inbounds nuw %struct.pmix_personality_t, ptr %196, i32 0, i32 0
  %198 = load i8, ptr %197, align 8, !tbaa !132
  %199 = zext i8 %198 to i32
  %200 = icmp eq i32 %190, %199
  br i1 %200, label %201, label %215

201:                                              ; preds = %186
  %202 = load ptr, ptr %11, align 8, !tbaa !38
  %203 = getelementptr inbounds nuw %struct.pmix_server_caddy_t, ptr %202, i32 0, i32 5
  %204 = load ptr, ptr %203, align 8, !tbaa !181
  %205 = getelementptr inbounds nuw %struct.pmix_peer_t, ptr %204, i32 0, i32 1
  %206 = load ptr, ptr %205, align 8, !tbaa !117
  %207 = getelementptr inbounds nuw %struct.pmix_namespace_t, ptr %206, i32 0, i32 12
  %208 = getelementptr inbounds nuw %struct.pmix_personality_t, ptr %207, i32 0, i32 1
  %209 = load ptr, ptr %208, align 8, !tbaa !133
  %210 = getelementptr inbounds nuw %struct.pmix_bfrops_module_t, ptr %209, i32 0, i32 3
  %211 = load ptr, ptr %210, align 8, !tbaa !138
  %212 = load ptr, ptr %8, align 8, !tbaa !38
  %213 = load ptr, ptr %12, align 8, !tbaa !38
  %214 = call i32 %211(ptr noundef %212, ptr noundef %213, i32 noundef 1, i16 noundef zeroext 28)
  store i32 %214, ptr %10, align 4, !tbaa !10
  br label %216

215:                                              ; preds = %186
  store i32 -22, ptr %10, align 4, !tbaa !10
  br label %216

216:                                              ; preds = %215, %201
  br label %217

217:                                              ; preds = %216, %162
  br label %218

218:                                              ; preds = %217
  br label %219

219:                                              ; preds = %218
  %220 = load i32, ptr %10, align 4, !tbaa !10
  %221 = icmp ne i32 0, %220
  br i1 %221, label %222, label %224

222:                                              ; preds = %219
  %223 = load i32, ptr %10, align 4, !tbaa !10
  store i32 %223, ptr %5, align 4
  store i32 1, ptr %13, align 4
  br label %231

224:                                              ; preds = %219
  br label %225

225:                                              ; preds = %224
  %226 = load ptr, ptr %12, align 8, !tbaa !38
  %227 = getelementptr inbounds nuw %struct.pmix_list_item_t, ptr %226, i32 0, i32 1
  %228 = load ptr, ptr %227, align 8, !tbaa !98
  store ptr %228, ptr %12, align 8, !tbaa !38
  br label %124, !llvm.loop !186

229:                                              ; preds = %124
  %230 = load i32, ptr %10, align 4, !tbaa !10
  store i32 %230, ptr %5, align 4
  store i32 1, ptr %13, align 4
  br label %231

231:                                              ; preds = %229, %222, %116
  call void @llvm.lifetime.end.p0(i64 8, ptr %12) #11
  call void @llvm.lifetime.end.p0(i64 8, ptr %11) #11
  call void @llvm.lifetime.end.p0(i64 4, ptr %10) #11
  %232 = load i32, ptr %5, align 4
  ret i32 %232
}