; Function Attrs: nounwind uwtable
define internal i32 @assemb_kvs_req(ptr noundef %0, ptr noundef readonly captures(address) %1, ptr noundef %2, ptr noundef readonly captures(none) %3) #0 {
  %5 = getelementptr inbounds nuw i8, ptr %3, i64 304
  %6 = load ptr, ptr %5, align 8, !tbaa !186
  %7 = getelementptr inbounds nuw i8, ptr %6, i64 140
  %8 = load i8, ptr %7, align 4, !tbaa !129
  %9 = icmp eq i8 %8, 1
  br i1 %9, label %42, label %10

10:                                               ; preds = %4
  %11 = load i32, ptr @pmix_bfrops_base_output, align 4, !tbaa !3
  %or.cond = icmp ult i32 %11, 64
  br i1 %or.cond, label %12, label %24

12:                                               ; preds = %10
  %13 = zext nneg i32 %11 to i64
  %14 = getelementptr inbounds nuw [0 x %struct.pmix_output_desc_t], ptr @pmix_output_info, i64 0, i64 %13, i32 2
  %15 = load i32, ptr %14, align 4, !tbaa !42
  %16 = icmp sgt i32 %15, 1
  br i1 %16, label %17, label %24

17:                                               ; preds = %12
  %18 = getelementptr inbounds nuw i8, ptr %6, i64 120
  %19 = load ptr, ptr %18, align 8, !tbaa !107
  %20 = getelementptr inbounds nuw i8, ptr %19, i64 488
  %21 = load ptr, ptr %20, align 8, !tbaa !123
  %22 = load ptr, ptr %21, align 8, !tbaa !127
  %23 = tail call ptr @PMIx_Data_type_string(i16 noundef zeroext 22) #15
  tail call void (i32, ptr, ...) @pmix_output(i32 noundef %11, ptr noundef nonnull @.str.76, ptr noundef nonnull @.str.8, i32 noundef 1446, ptr noundef %22, ptr noundef %23) #15
  br label %24

24:                                               ; preds = %17, %12, %10
  %25 = getelementptr inbounds nuw i8, ptr %2, i64 120
  %26 = load i8, ptr %25, align 8, !tbaa !120
  %27 = icmp eq i8 %26, 0
  %28 = load ptr, ptr %5, align 8, !tbaa !186
  %29 = getelementptr inbounds nuw i8, ptr %28, i64 120
  %30 = load ptr, ptr %29, align 8, !tbaa !107
  %31 = getelementptr inbounds nuw i8, ptr %30, i64 480
  %32 = load i8, ptr %31, align 8, !tbaa !122
  br i1 %27, label %33, label %34

33:                                               ; preds = %24
  store i8 %32, ptr %25, align 8, !tbaa !120
  br label %36

34:                                               ; preds = %24
  %35 = icmp eq i8 %26, %32
  br i1 %35, label %36, label %.thread

36:                                               ; preds = %34, %33
  %37 = getelementptr inbounds nuw i8, ptr %30, i64 488
  %38 = load ptr, ptr %37, align 8, !tbaa !123
  %39 = getelementptr inbounds nuw i8, ptr %38, i64 24
  %40 = load ptr, ptr %39, align 8, !tbaa !128
  %41 = tail call i32 %40(ptr noundef nonnull %2, ptr noundef %0, i32 noundef 1, i16 noundef zeroext 22) #15
  %.not = icmp eq i32 %41, 0
  br i1 %.not, label %42, label %.thread

42:                                               ; preds = %36, %4
  %43 = getelementptr inbounds nuw i8, ptr %1, i64 120
  %44 = getelementptr inbounds nuw i8, ptr %1, i64 240
  %.051 = load ptr, ptr %44, align 8, !tbaa !27
  %.not4452 = icmp eq ptr %.051, %43
  br i1 %.not4452, label %.thread, label %.lr.ph

.lr.ph:                                           ; preds = %42
  %45 = getelementptr inbounds nuw i8, ptr %2, i64 120
  br label %48

46:                                               ; preds = %74
  %47 = getelementptr inbounds nuw i8, ptr %.053, i64 120
  %.0 = load ptr, ptr %47, align 8, !tbaa !27
  %.not44 = icmp eq ptr %.0, %43
  br i1 %.not44, label %.thread, label %48, !llvm.loop !190

48:                                               ; preds = %.lr.ph, %46
  %.053 = phi ptr [ %.051, %.lr.ph ], [ %.0, %46 ]
  %49 = load i32, ptr @pmix_bfrops_base_output, align 4, !tbaa !3
  %or.cond3 = icmp ult i32 %49, 64
  br i1 %or.cond3, label %50, label %63

50:                                               ; preds = %48
  %51 = zext nneg i32 %49 to i64
  %52 = getelementptr inbounds nuw [0 x %struct.pmix_output_desc_t], ptr @pmix_output_info, i64 0, i64 %51, i32 2
  %53 = load i32, ptr %52, align 4, !tbaa !42
  %54 = icmp sgt i32 %53, 1
  br i1 %54, label %55, label %63

55:                                               ; preds = %50
  %56 = load ptr, ptr %5, align 8, !tbaa !186
  %57 = getelementptr inbounds nuw i8, ptr %56, i64 120
  %58 = load ptr, ptr %57, align 8, !tbaa !107
  %59 = getelementptr inbounds nuw i8, ptr %58, i64 488
  %60 = load ptr, ptr %59, align 8, !tbaa !123
  %61 = load ptr, ptr %60, align 8, !tbaa !127
  %62 = tail call ptr @PMIx_Data_type_string(i16 noundef zeroext 28) #15
  tail call void (i32, ptr, ...) @pmix_output(i32 noundef %49, ptr noundef nonnull @.str.76, ptr noundef nonnull @.str.8, i32 noundef 1452, ptr noundef %61, ptr noundef %62) #15
  br label %63

63:                                               ; preds = %55, %50, %48
  %64 = load i8, ptr %45, align 8, !tbaa !120
  %65 = icmp eq i8 %64, 0
  %66 = load ptr, ptr %5, align 8, !tbaa !186
  %67 = getelementptr inbounds nuw i8, ptr %66, i64 120
  %68 = load ptr, ptr %67, align 8, !tbaa !107
  %69 = getelementptr inbounds nuw i8, ptr %68, i64 480
  %70 = load i8, ptr %69, align 8, !tbaa !122
  br i1 %65, label %71, label %72

71:                                               ; preds = %63
  store i8 %70, ptr %45, align 8, !tbaa !120
  br label %74

72:                                               ; preds = %63
  %73 = icmp eq i8 %64, %70
  br i1 %73, label %74, label %.thread

74:                                               ; preds = %72, %71
  %75 = getelementptr inbounds nuw i8, ptr %68, i64 488
  %76 = load ptr, ptr %75, align 8, !tbaa !123
  %77 = getelementptr inbounds nuw i8, ptr %76, i64 24
  %78 = load ptr, ptr %77, align 8, !tbaa !128
  %79 = tail call i32 %78(ptr noundef nonnull %2, ptr noundef %.053, i32 noundef 1, i16 noundef zeroext 28) #15
  %.not45 = icmp eq i32 %79, 0
  br i1 %.not45, label %46, label %.thread

.thread:                                          ; preds = %74, %46, %72, %42, %34, %36
  %.038 = phi i32 [ %41, %36 ], [ -22, %34 ], [ 0, %42 ], [ %79, %74 ], [ 0, %46 ], [ -22, %72 ]
  ret i32 %.038
}